; Function Attrs: nounwind uwtable
define ptr @Gia_ManGenSims(ptr noundef %0) local_unnamed_addr #0 {
  %2 = getelementptr inbounds nuw i8, ptr %0, i64 848
  %3 = load ptr, ptr %2, align 8, !tbaa !161
  %4 = icmp eq ptr %3, null
  br i1 %4, label %Vec_WrdFreeP.exit, label %5

5:                                                ; preds = %1
  %6 = getelementptr inbounds nuw i8, ptr %3, i64 8
  %7 = load ptr, ptr %6, align 8, !tbaa !162
  %.not.i = icmp eq ptr %7, null
  br i1 %.not.i, label %10, label %.thread.i

.thread.i:                                        ; preds = %5
  tail call void @free(ptr noundef nonnull %7) #26
  %8 = load ptr, ptr %2, align 8, !tbaa !161
  %9 = getelementptr inbounds nuw i8, ptr %8, i64 8
  store ptr null, ptr %9, align 8, !tbaa !162
  br label %10

10:                                               ; preds = %.thread.i, %5
  %11 = phi ptr [ %8, %.thread.i ], [ %3, %5 ]
  tail call void @free(ptr noundef nonnull %11) #26
  br label %Vec_WrdFreeP.exit

Vec_WrdFreeP.exit:                                ; preds = %1, %10
  %12 = getelementptr i8, ptr %0, i64 64
  %.val = load ptr, ptr %12, align 8, !tbaa !110
  %13 = getelementptr i8, ptr %.val, i64 4
  %.val.val = load i32, ptr %13, align 4, !tbaa !89
  %14 = icmp slt i32 %.val.val, 7
  %15 = add nsw i32 %.val.val, -6
  %16 = shl nuw i32 1, %15
  %.fr.i = freeze i32 %16
  %17 = select i1 %14, i32 1, i32 %.fr.i
  %18 = select i1 %14, i32 0, i32 %15
  %19 = shl i32 %.val.val, %18
  %20 = tail call noalias dereferenceable_or_null(16) ptr @malloc(i64 noundef 16) #28
  %21 = add i32 %19, -1
  %or.cond.i.i.i = icmp ult i32 %21, 15
  %spec.store.select.i.i.i = select i1 %or.cond.i.i.i, i32 16, i32 %19
  store i32 %spec.store.select.i.i.i, ptr %20, align 8, !tbaa !164
  %.not.i.i.i = icmp eq i32 %spec.store.select.i.i.i, 0
  br i1 %.not.i.i.i, label %Vec_WrdStart.exit.i, label %22

22:                                               ; preds = %Vec_WrdFreeP.exit
  %23 = sext i32 %spec.store.select.i.i.i to i64
  %24 = shl nsw i64 %23, 3
  %25 = tail call noalias ptr @malloc(i64 noundef %24) #28
  br label %Vec_WrdStart.exit.i

Vec_WrdStart.exit.i:                              ; preds = %22, %Vec_WrdFreeP.exit
  %26 = phi ptr [ %25, %22 ], [ null, %Vec_WrdFreeP.exit ]
  %27 = getelementptr inbounds nuw i8, ptr %20, i64 4
  %28 = getelementptr inbounds nuw i8, ptr %20, i64 8
  store ptr %26, ptr %28, align 8, !tbaa !162
  store i32 %19, ptr %27, align 4, !tbaa !165
  %29 = sext i32 %19 to i64
  %30 = shl nsw i64 %29, 3
  tail call void @llvm.memset.p0.i64(ptr align 8 %26, i8 0, i64 %30, i1 false)
  %31 = icmp sgt i32 %.val.val, 0
  %32 = icmp sgt i32 %17, 0
  %or.cond = and i1 %31, %32
  br i1 %or.cond, label %.lr.ph34.split.us.split.us.preheader.i, label %Vec_WrdStartTruthTables.exit

.lr.ph34.split.us.split.us.preheader.i:           ; preds = %Vec_WrdStart.exit.i
  %33 = shl nuw i32 %17, 1
  %smax64.i = tail call i32 @llvm.smax.i32(i32 %33, i32 1)
  %wide.trip.count76.i = zext nneg i32 %.val.val to i64
  %wide.trip.count65.i = zext nneg i32 %smax64.i to i64
  br label %.lr.ph34.split.us.split.us.i

.lr.ph34.split.us.split.us.i:                     ; preds = %..loopexit28_crit_edge.us.us.i, %.lr.ph34.split.us.split.us.preheader.i
  %indvars.iv73.i = phi i64 [ 0, %.lr.ph34.split.us.split.us.preheader.i ], [ %indvars.iv.next74.i, %..loopexit28_crit_edge.us.us.i ]
  %34 = trunc i64 %indvars.iv73.i to i32
  %35 = shl i32 %34, %18
  %36 = sext i32 %35 to i64
  %37 = getelementptr inbounds i64, ptr %26, i64 %36
  %38 = icmp samesign ult i64 %indvars.iv73.i, 5
  br i1 %38, label %.preheader.us.us.i, label %.preheader27.us.us.i

39:                                               ; preds = %.preheader27.us.us.i, %39
  %indvars.iv61.i = phi i64 [ 0, %.preheader27.us.us.i ], [ %indvars.iv.next62.i, %39 ]
  %40 = trunc nuw nsw i64 %indvars.iv61.i to i32
  %41 = and i32 %48, %40
  %.not.us.us.i = icmp ne i32 %41, 0
  %spec.select.i = sext i1 %.not.us.us.i to i32
  %42 = getelementptr inbounds nuw i32, ptr %37, i64 %indvars.iv61.i
  store i32 %spec.select.i, ptr %42, align 4, !tbaa !37
  %indvars.iv.next62.i = add nuw nsw i64 %indvars.iv61.i, 1
  %exitcond66.not.i = icmp eq i64 %indvars.iv.next62.i, %wide.trip.count65.i
  br i1 %exitcond66.not.i, label %..loopexit28_crit_edge.us.us.i, label %39, !llvm.loop !166

..loopexit28_crit_edge.us.us.i:                   ; preds = %39, %43
  %indvars.iv.next74.i = add nuw nsw i64 %indvars.iv73.i, 1
  %exitcond77.not.i = icmp eq i64 %indvars.iv.next74.i, %wide.trip.count76.i
  br i1 %exitcond77.not.i, label %Vec_WrdStartTruthTables.exit, label %.lr.ph34.split.us.split.us.i, !llvm.loop !167

43:                                               ; preds = %.preheader.us.us.i, %43
  %indvars.iv67.i = phi i64 [ 0, %.preheader.us.us.i ], [ %indvars.iv.next68.i, %43 ]
  %44 = getelementptr inbounds nuw i32, ptr %37, i64 %indvars.iv67.i
  store i32 %46, ptr %44, align 4, !tbaa !37
  %indvars.iv.next68.i = add nuw nsw i64 %indvars.iv67.i, 1
  %exitcond72.not.i = icmp eq i64 %indvars.iv.next68.i, %wide.trip.count65.i
  br i1 %exitcond72.not.i, label %..loopexit28_crit_edge.us.us.i, label %43, !llvm.loop !168

.preheader.us.us.i:                               ; preds = %.lr.ph34.split.us.split.us.i
  %45 = getelementptr inbounds nuw [5 x i32], ptr @__const.Vec_WrdStartTruthTables.Masks, i64 0, i64 %indvars.iv73.i
  %46 = load i32, ptr %45, align 4, !tbaa !37
  br label %43

.preheader27.us.us.i:                             ; preds = %.lr.ph34.split.us.split.us.i
  %47 = add i32 %34, -5
  %48 = shl nuw i32 1, %47
  br label %39

Vec_WrdStartTruthTables.exit:                     ; preds = %..loopexit28_crit_edge.us.us.i, %Vec_WrdStart.exit.i
  store ptr %20, ptr %2, align 8, !tbaa !169
  %49 = tail call ptr @Gia_ManSimPatSim(ptr noundef %0) #26
  ret ptr %49
}